; Function Attrs: mustprogress uwtable
define hidden void @_ZN17opencv_tensorflow9AttrValue8CopyFromERKS0_(ptr noundef nonnull align 8 dereferenceable(32) %0, ptr noundef nonnull readonly align 8 dereferenceable(32) %1) local_unnamed_addr #3 align 2 {
  %3 = icmp eq ptr %1, %0
  br i1 %3, label %9, label %4

4:                                                ; preds = %2
  tail call void @_ZN17opencv_tensorflow9AttrValue11clear_valueEv(ptr noundef nonnull align 8 dereferenceable(32) %0)
  %5 = getelementptr inbounds nuw i8, ptr %0, i64 8
  %6 = load i64, ptr %5, align 8, !tbaa !16
  %7 = and i64 %6, 1
  %.not.i = icmp eq i64 %7, 0
  br i1 %.not.i, label %_ZN17opencv_tensorflow9AttrValue5ClearEv.exit, label %8

8:                                                ; preds = %4
  tail call void @_ZN6google8protobuf8internal16InternalMetadata7DoClearINS0_15UnknownFieldSetEEEvv(ptr noundef nonnull align 8 dereferenceable(8) %5)
  br label %_ZN17opencv_tensorflow9AttrValue5ClearEv.exit

_ZN17opencv_tensorflow9AttrValue5ClearEv.exit:    ; preds = %4, %8
  tail call void @_ZN17opencv_tensorflow9AttrValue9MergeFromERKS0_(ptr noundef nonnull align 8 dereferenceable(32) %0, ptr noundef nonnull align 8 dereferenceable(32) %1)
  br label %9

9:                                                ; preds = %2, %_ZN17opencv_tensorflow9AttrValue5ClearEv.exit
  ret void
}